; Function Attrs: mustprogress uwtable
define void @_ZN3gmx26FreeEnergyPerturbationData7Element12elementSetupEv(ptr noundef nonnull readonly align 8 captures(none) dereferenceable(80) %0) unnamed_addr #0 align 2 {
  %2 = getelementptr inbounds nuw i8, ptr %0, i64 64
  %3 = load i8, ptr %2, align 8, !tbaa !4, !range !9, !noundef !10
  %4 = trunc nuw i8 %3 to i1
  %5 = getelementptr inbounds nuw i8, ptr %0, i64 72
  %6 = load i32, ptr %5, align 8
  %7 = icmp eq i32 %6, 0
  %or.cond = select i1 %4, i1 %7, i1 false
  br i1 %or.cond, label %8, label %9

8:                                                ; preds = %1
  tail call void @_ZN3gmx8internal13assertHandlerEPKcS2_S2_S2_i(ptr noundef nonnull @.str.25, ptr noundef nonnull @.str.26, ptr noundef nonnull @"__PRETTY_FUNCTION__._ZZN3gmx26FreeEnergyPerturbationData7Element12elementSetupEvENK3$_0clEv", ptr noundef nonnull @.str.27, i32 noundef 292) #29
  unreachable

9:                                                ; preds = %1
  %10 = getelementptr inbounds nuw i8, ptr %0, i64 24
  %11 = load ptr, ptr %10, align 8, !tbaa !34
  %12 = getelementptr inbounds nuw i8, ptr %11, i64 56
  %13 = load ptr, ptr %12, align 8, !tbaa !35
  %14 = load ptr, ptr %13, align 8, !tbaa !47
  %15 = getelementptr inbounds nuw i8, ptr %11, i64 12
  %16 = load float, ptr %15, align 4, !tbaa !49
  tail call void @_Z14update_mdatomsP9t_mdatomsf(ptr noundef %14, float noundef %16)
  ret void
}